target datalayout = "e-m:e-p270:32:32-p271:32:32-p272:64:64-i64:64-i128:128-f80:128-n8:16:32:64-S128"
target triple = "x86_64-pc-linux-gnu"

%struct.H5ES_t = type { i64, ptr, ptr, ptr, ptr, %struct.H5ES_event_list_t, i8, %struct.H5ES_event_list_t }
%struct.H5ES_event_list_t = type { i64, ptr, ptr }
%struct.H5ES_wait_ctx_t = type { ptr, i64, ptr, ptr }

@H5ES_init_g = global i8 0, align 1
@H5_libterm_g = external global i8, align 1
@.str = private unnamed_addr constant [101 x i8] c"generated/home/dtcxzyw/WorkSpace/Projects/compilers/llvm-opt-benchmark/bench/hdf5/hdf5/src/H5ESint.c\00", align 1
@H5E_EVENTSET_g = external global i64, align 8
@H5E_BADITER_g = external global i64, align 8
@.str.10 = private unnamed_addr constant [17 x i8] c"iteration failed\00", align 1
@__func__.H5ES__wait = private unnamed_addr constant [11 x i8] c"H5ES__wait\00", align 1

; Function Attrs: nounwind uwtable
define i32 @H5ES__wait(ptr noundef %0, i64 noundef %1, ptr noundef %2, ptr noundef %3) #0 {
  %5 = alloca ptr, align 8
  %6 = alloca i64, align 8
  %7 = alloca ptr, align 8
  %8 = alloca ptr, align 8
  %9 = alloca %struct.H5ES_wait_ctx_t, align 8
  %10 = alloca i32, align 4
  %11 = alloca i8, align 1
  store ptr %0, ptr %5, align 8, !tbaa !13
  store i64 %1, ptr %6, align 8, !tbaa !11
  store ptr %2, ptr %7, align 8, !tbaa !43
  store ptr %3, ptr %8, align 8, !tbaa !53
  call void @llvm.lifetime.start.p0(i64 32, ptr %9) #5
  call void @llvm.lifetime.start.p0(i64 4, ptr %10) #5
  store i32 0, ptr %10, align 4, !tbaa !3
  call void @llvm.lifetime.start.p0(i64 1, ptr %11) #5
  store i8 0, ptr %11, align 1, !tbaa !7
  %12 = load i8, ptr @H5ES_init_g, align 1, !tbaa !7, !range !9, !noundef !10
  %13 = trunc i8 %12 to i1
  br i1 %13, label %18, label %14

14:                                               ; preds = %4
  %15 = load i8, ptr @H5_libterm_g, align 1, !tbaa !7, !range !9, !noundef !10
  %16 = trunc i8 %15 to i1
  %17 = xor i1 %16, true
  br label %18

18:                                               ; preds = %14, %4
  %19 = phi i1 [ true, %4 ], [ %17, %14 ]
  %20 = xor i1 %19, true
  %21 = xor i1 %20, true
  %22 = zext i1 %21 to i32
  %23 = sext i32 %22 to i64
  %24 = call i64 @llvm.expect.i64(i64 %23, i64 1)
  %25 = icmp ne i64 %24, 0
  br i1 %25, label %26, label %62

26:                                               ; preds = %18
  %27 = load ptr, ptr %7, align 8, !tbaa !43
  store i64 0, ptr %27, align 8, !tbaa !11
  %28 = load ptr, ptr %8, align 8, !tbaa !53
  store i8 0, ptr %28, align 1, !tbaa !7
  %29 = load ptr, ptr %5, align 8, !tbaa !13
  %30 = getelementptr inbounds nuw %struct.H5ES_wait_ctx_t, ptr %9, i32 0, i32 0
  store ptr %29, ptr %30, align 8, !tbaa !55
  %31 = load i64, ptr %6, align 8, !tbaa !11
  %32 = getelementptr inbounds nuw %struct.H5ES_wait_ctx_t, ptr %9, i32 0, i32 1
  store i64 %31, ptr %32, align 8, !tbaa !57
  %33 = load ptr, ptr %7, align 8, !tbaa !43
  %34 = getelementptr inbounds nuw %struct.H5ES_wait_ctx_t, ptr %9, i32 0, i32 2
  store ptr %33, ptr %34, align 8, !tbaa !58
  %35 = load ptr, ptr %8, align 8, !tbaa !53
  %36 = getelementptr inbounds nuw %struct.H5ES_wait_ctx_t, ptr %9, i32 0, i32 3
  store ptr %35, ptr %36, align 8, !tbaa !59
  %37 = load ptr, ptr %5, align 8, !tbaa !13
  %38 = getelementptr inbounds nuw %struct.H5ES_t, ptr %37, i32 0, i32 5
  %39 = call i32 @H5ES__list_iterate(ptr noundef %38, i32 noundef 2, ptr noundef @H5ES__wait_cb, ptr noundef %9)
  %40 = icmp slt i32 %39, 0
  br i1 %40, label %41, label %60

41:                                               ; preds = %26
  br label %42

42:                                               ; preds = %41
  br label %43

43:                                               ; preds = %42
  br label %44

44:                                               ; preds = %43
  %45 = load i64, ptr @H5E_EVENTSET_g, align 8, !tbaa !11
  %46 = load i64, ptr @H5E_BADITER_g, align 8, !tbaa !11
  %47 = call i32 (ptr, ptr, i32, i64, i64, ptr, ...) @H5E_printf_stack(ptr noundef @.str, ptr noundef @__func__.H5ES__wait, i32 noundef 755, i64 noundef %45, i64 noundef %46, ptr noundef @.str.10)
  br label %48

48:                                               ; preds = %44
  br label %49

49:                                               ; preds = %48
  store i8 1, ptr %11, align 1, !tbaa !7
  %50 = load i8, ptr %11, align 1, !tbaa !7, !range !9, !noundef !10
  %51 = trunc i8 %50 to i1
  %52 = zext i1 %51 to i8
  store i8 %52, ptr %11, align 1, !tbaa !7
  br label %53

53:                                               ; preds = %49
  br label %54

54:                                               ; preds = %53
  br label %55

55:                                               ; preds = %54
  store i32 -1, ptr %10, align 4, !tbaa !3
  br label %61

56:                                               ; No predecessors!
  br label %57

57:                                               ; preds = %56
  br label %58

58:                                               ; preds = %57
  br label %59

59:                                               ; preds = %58
  br label %60

60:                                               ; preds = %59, %26
  br label %61

61:                                               ; preds = %60, %55
  br label %62

62:                                               ; preds = %61, %18
  %63 = load i32, ptr %10, align 4, !tbaa !3
  call void @llvm.lifetime.end.p0(i64 1, ptr %11) #5
  call void @llvm.lifetime.end.p0(i64 4, ptr %10) #5
  call void @llvm.lifetime.end.p0(i64 32, ptr %9) #5
  ret i32 %63
}