; Function Attrs: nounwind uwtable
define range(i32 -1, 1) i32 @H5ES__wait(ptr noundef %0, i64 noundef %1, ptr noundef %2, ptr noundef %3) local_unnamed_addr #0 {
  %5 = alloca %struct.H5ES_wait_ctx_t, align 8
  call void @llvm.lifetime.start.p0(i64 32, ptr nonnull %5) #5
  %6 = load i8, ptr @H5ES_init_g, align 1, !tbaa !3, !range !7, !noundef !8
  %7 = trunc nuw i8 %6 to i1
  %8 = load i8, ptr @H5_libterm_g, align 1, !range !7
  %9 = trunc nuw i8 %8 to i1
  %10 = xor i1 %9, true
  %11 = select i1 %7, i1 true, i1 %10
  br i1 %11, label %12, label %23, !prof !9

12:                                               ; preds = %4
  store i64 0, ptr %2, align 8, !tbaa !10
  store i8 0, ptr %3, align 1, !tbaa !3
  store ptr %0, ptr %5, align 8, !tbaa !43
  %13 = getelementptr inbounds nuw i8, ptr %5, i64 8
  store i64 %1, ptr %13, align 8, !tbaa !47
  %14 = getelementptr inbounds nuw i8, ptr %5, i64 16
  store ptr %2, ptr %14, align 8, !tbaa !48
  %15 = getelementptr inbounds nuw i8, ptr %5, i64 24
  store ptr %3, ptr %15, align 8, !tbaa !49
  %16 = getelementptr inbounds nuw i8, ptr %0, i64 40
  %17 = call i32 @H5ES__list_iterate(ptr noundef nonnull %16, i32 noundef 2, ptr noundef nonnull @H5ES__wait_cb, ptr noundef nonnull %5) #5
  %18 = icmp slt i32 %17, 0
  br i1 %18, label %19, label %23

19:                                               ; preds = %12
  %20 = load i64, ptr @H5E_EVENTSET_g, align 8, !tbaa !10
  %21 = load i64, ptr @H5E_BADITER_g, align 8, !tbaa !10
  %22 = call i32 (ptr, ptr, i32, i64, i64, ptr, ...) @H5E_printf_stack(ptr noundef nonnull @.str, ptr noundef nonnull @__func__.H5ES__wait, i32 noundef 755, i64 noundef %20, i64 noundef %21, ptr noundef nonnull @.str.10) #5
  br label %23

23:                                               ; preds = %19, %12, %4
  %.0 = phi i32 [ -1, %19 ], [ 0, %12 ], [ 0, %4 ]
  call void @llvm.lifetime.end.p0(i64 32, ptr nonnull %5) #5
  ret i32 %.0
}